ASxxxx Linker V03.00 + NoICE + sdld,  page 1.
Hexadecimal  [32-Bits]

Area                                    Addr        Size        Decimal Bytes (Attributes)
--------------------------------        ----        ----        ------- ----- ------------
CABS                                00000000    00000000 =           0. bytes (ABS,CON,CODE)

      Value  Global                              Global Defined In Module
      -----  --------------------------------   ------------------------
C:   00000000  l_BSEG                          
C:   00000000  l_BSEG_BYTES                    
C:   00000000  l_CABS                          
C:   00000000  l_GSINIT                        
C:   00000000  l_GSINIT1                       
C:   00000000  l_GSINIT5                       
C:   00000000  l_IABS                          
C:   00000000  l_PSEG                          
C:   00000000  l_REG_BANK_1                    
C:   00000000  l_REG_BANK_2                    
C:   00000000  l_REG_BANK_3                    
C:   00000000  l_RSEG                          
C:   00000000  l_RSEG0                         
C:   00000000  l_RSEG1                         
C:   00000000  l_XABS                          
C:   00000000  l__CODE                         
C:   00000000  s_BSEG                          
C:   00000000  s_CABS                          
C:   00000000  s_DSEG                          
C:   00000000  s_HOME                          
C:   00000000  s_IABS                          
C:   00000000  s_PSEG                          
C:   00000000  s_REG_BANK_0                    
C:   00000000  s_RSEG                          
C:   00000000  s_RSEG0                         
C:   00000000  s_RSEG1                         
C:   00000000  s_XABS                          
C:   00000000  s_XSEG                          
C:   00000001  l_BIT_BANK                      
C:   00000003  l_GSFINAL                       
C:   00000003  l_GSINIT0                       
C:   00000004  l_OSEG                          
C:   00000008  l_REG_BANK_0                    
C:   00000008  s_REG_BANK_1                    
C:   0000000A  l_GSINIT2                       
C:   0000000A  l_ISEG                          
C:   00000010  s_REG_BANK_2                    
C:   00000018  s_REG_BANK_3                    
C:   0000001A  s_OSEG                          
C:   00000020  s_BIT_BANK                      
C:   00000020  s_BSEG_BYTES                    
C:   00000020  s__CODE                         
C:   00000021  l_GSINIT3                       
C:   0000002A  l_GSINIT4                       
C:   00000033  s_ISEG                          
C:   0000003D  s_SSEG                          
C:   00000051  l_HOME                          
C:   00000051  s_GSINIT0                       
C:   00000054  s_GSINIT1                       
C:   00000054  s_GSINIT2                       
ASxxxx Linker V03.00 + NoICE + sdld,  page 2.
Hexadecimal  [32-Bits]

Area                                    Addr        Size        Decimal Bytes (Attributes)
--------------------------------        ----        ----        ------- ----- ------------
CABS                                00000000    00000000 =           0. bytes (ABS,CON,CODE)

      Value  Global                              Global Defined In Module
      -----  --------------------------------   ------------------------
C:   0000005E  s_GSINIT3                       
C:   00000070  l_SSEG                          
C:   00000074  l_XINIT                         
C:   00000074  l_XISEG                         
C:   0000007E  l_DSEG                          
C:   0000007F  s_GSINIT4                       
C:   000000A9  s_GSFINAL                       
C:   000000A9  s_GSINIT                        
C:   000000A9  s_GSINIT5                       
C:   000000AC  s_CSEG                          
C:   00000100  l_IRAM                          
C:   00000280  l_CONST                         
C:   0000031E  l_XSEG                          
C:   0000031E  s_XISEG                         
C:   000049BD  l_CSEG                          
C:   00004A69  s_CONST                         
C:   00004CE9  s_XINIT                         

ASxxxx Linker V03.00 + NoICE + sdld,  page 3.
Hexadecimal  [32-Bits]

Area                                    Addr        Size        Decimal Bytes (Attributes)
--------------------------------        ----        ----        ------- ----- ------------
.  .ABS.                            00000000    00000000 =           0. bytes (ABS,CON)

      Value  Global                              Global Defined In Module
      -----  --------------------------------   ------------------------
     00000000  .__.ABS.                           _startup
     00000081  _SP                                global_timer
     00000082  _DPL                               global_timer
     00000083  _DPH                               global_timer
     00000084  _S4CON                             global_timer
     00000085  _S4BUF                             global_timer
     00000087  _PCON                              global_timer
     00000088  _INT0TR                            global_timer
     00000088  _TCON                              global_timer
     00000089  _TMOD                              global_timer
     0000008A  _INT1TR                            global_timer
     0000008A  _T0L                               global_timer
     0000008B  _T1L                               global_timer
     0000008C  _T0H                               global_timer
     0000008C  _T0RUN                             global_timer
     0000008D  _T1H                               global_timer
     0000008E  _AUXR                              global_timer
     0000008E  _T1RUN                             global_timer
     0000008F  _INT_CLKO                          global_timer
     00000090  _P1                                global_timer
     00000090  _P1_0                              global_timer
     00000091  _P1M1                              global_timer
     00000091  _P1_1                              global_timer
     00000092  _P1M0                              global_timer
     00000092  _P1_2                              global_timer
     00000093  _P1_3                              global_timer
     00000094  _P1_4                              global_timer
     00000095  _P1_5                              global_timer
     00000095  _P2M1                              global_timer
     00000096  _P1_6                              global_timer
     00000096  _P2M0                              global_timer
     00000097  _P1_7                              global_timer
     00000098  _S1CON                             global_timer
     00000099  _S1BUF                             global_timer
     0000009A  _S2CON                             global_timer
     0000009B  _S2BUF                             global_timer
     0000009D  _IRCBAND                           global_timer
     0000009E  _LIRTRIM                           global_timer
     0000009F  _IRTRIM                            global_timer
     0000009F  _S1SM0_FE                          global_timer
     000000A0  _P2                                global_timer
     000000A0  _P2_0                              global_timer
     000000A0  __XPAGE                            
     000000A1  _BUS_SPEED                         global_timer
     000000A1  _P2_1                              global_timer
     000000A2  _P2_2                              global_timer
     000000A2  _P_SW1                             global_timer
     000000A3  _P2_3                              global_timer
     000000A4  _P2_4                              global_timer
     000000A5  _P2_5                              global_timer
ASxxxx Linker V03.00 + NoICE + sdld,  page 4.
Hexadecimal  [32-Bits]

Area                                    Addr        Size        Decimal Bytes (Attributes)
--------------------------------        ----        ----        ------- ----- ------------
.  .ABS.                            00000000    00000000 =           0. bytes (ABS,CON)

      Value  Global                              Global Defined In Module
      -----  --------------------------------   ------------------------
     000000A6  _P2_6                              global_timer
     000000A7  _P2_7                              global_timer
     000000A8  _IE1                               global_timer
     000000A8  _INT0IE                            global_timer
     000000A9  _SADDR                             global_timer
     000000A9  _T0IE                              global_timer
     000000AA  _INT1IE                            global_timer
     000000AA  _WKTCL                             global_timer
     000000AB  _T1IE                              global_timer
     000000AB  _WKTCH                             global_timer
     000000AC  _S3CON                             global_timer
     000000AD  _S3BUF                             global_timer
     000000AE  _TA                                global_timer
     000000AF  _EA                                global_timer
     000000AF  _IE2                               global_timer
     000000B0  _P3                                global_timer
     000000B0  _P3_0                              global_timer
     000000B1  _P3M1                              global_timer
     000000B1  _P3_1                              global_timer
     000000B2  _P3M0                              global_timer
     000000B2  _P3_2                              global_timer
     000000B3  _P3_3                              global_timer
     000000B4  _P3_4                              global_timer
     000000B5  _IP2L                              global_timer
     000000B5  _P3_5                              global_timer
     000000B6  _IP2H                              global_timer
     000000B6  _P3_6                              global_timer
     000000B7  _IP1H                              global_timer
     000000B7  _P3_7                              global_timer
     000000B8  _IP1L                              global_timer
     000000B9  _SADEN                             global_timer
     000000BA  _P_SW2                             global_timer
     000000BC  _ADC_CONTR                         global_timer
     000000BD  _ADC_RESH                          global_timer
     000000BE  _ADC_RESL                          global_timer
     000000C1  _WDT_CONTR                         global_timer
     000000C2  _IAP_DATA                          global_timer
     000000C3  _IAP_ADDRH                         global_timer
     000000C4  _IAP_ADDRL                         global_timer
     000000C5  _IAP_CMD                           global_timer
     000000C6  _IAP_TRIG                          global_timer
     000000C7  _IAP_CONTR                         global_timer
     000000C8  _P5                                global_timer
     000000C8  _P5_0                              global_timer
     000000C9  _P5M1                              global_timer
     000000C9  _P5_1                              global_timer
     000000CA  _P5M0                              global_timer
     000000CA  _P5_2                              global_timer
     000000CB  _P5_3                              global_timer
     000000CC  _P5_4                              global_timer
     000000CD  _P5_5                              global_timer
ASxxxx Linker V03.00 + NoICE + sdld,  page 5.
Hexadecimal  [32-Bits]

Area                                    Addr        Size        Decimal Bytes (Attributes)
--------------------------------        ----        ----        ------- ----- ------------
.  .ABS.                            00000000    00000000 =           0. bytes (ABS,CON)

      Value  Global                              Global Defined In Module
      -----  --------------------------------   ------------------------
     000000CD  _SPSTAT                            global_timer
     000000CE  _SPCTL                             global_timer
     000000CF  _SPDAT                             global_timer
     000000D0  _P                                 global_timer
     000000D0  _PSW                               global_timer
     000000D1  _F1                                global_timer
     000000D1  _T4T3M                             global_timer
     000000D2  _OV                                global_timer
     000000D2  _T4H                               global_timer
     000000D3  _RS0                               global_timer
     000000D3  _T4L                               global_timer
     000000D4  _RS1                               global_timer
     000000D4  _T3H                               global_timer
     000000D5  _F0                                global_timer
     000000D5  _T3L                               global_timer
     000000D6  _AC                                global_timer
     000000D6  _T2H                               global_timer
     000000D7  _CY                                global_timer
     000000D7  _T2L                               global_timer
     000000DC  _USBCLK                            global_timer
     000000DE  _ADCCFG                            global_timer
     000000DF  _IP3L                              global_timer
     000000E0  _ACC                               global_timer
     000000E3  _DPS                               global_timer
     000000E4  _DPL1                              global_timer
     000000E5  _DPH1                              global_timer
     000000E6  _CMPCR1                            global_timer
     000000E7  _CMPCR2                            global_timer
     000000EC  _USBDAT                            global_timer
     000000EE  _IP3H                              global_timer
     000000EF  _AUXINTIF                          global_timer
     000000F0  _B                                 global_timer
     000000F4  _USBCON                            global_timer
     000000F5  _B_5                               _gptrget
     000000F5  _IAP_TPS                           global_timer
     000000F6  _B_6                               _gptrget
     000000F7  _B_7                               _gptrget
     000000FA  _DMA_ADC_AMT                       global_timer
     000000FC  _USBADR                            global_timer
     000000FF  _RSTCFG                            global_timer
     00008382  _DP                                global_timer
     00008C8A  _T0                                global_timer
     00008D8B  _T1                                global_timer
     0000ABAA  _WKTC                              global_timer
     0000BDBE  _ADC_RES                           global_timer
     0000C3C4  _IAP_ADDR                          global_timer
     0000D2D3  _T4                                global_timer
     0000D4D5  _T3                                global_timer
     0000D6D7  _T2                                global_timer
     0000FA00  _DMA_M2M_CFG                       global_timer
     0000FA01  _DMA_M2M_CR                        global_timer
ASxxxx Linker V03.00 + NoICE + sdld,  page 6.
Hexadecimal  [32-Bits]

Area                                    Addr        Size        Decimal Bytes (Attributes)
--------------------------------        ----        ----        ------- ----- ------------
.  .ABS.                            00000000    00000000 =           0. bytes (ABS,CON)

      Value  Global                              Global Defined In Module
      -----  --------------------------------   ------------------------
     0000FA02  _DMA_M2M_STA                       global_timer
     0000FA03  _DMA_M2M_AMT                       global_timer
     0000FA04  _DMA_M2M_DONE                      global_timer
     0000FA05  _DMA_M2M_TXAH                      global_timer
     0000FA06  _DMA_M2M_TXAL                      global_timer
     0000FA07  _DMA_M2M_RXAH                      global_timer
     0000FA08  _DMA_M2M_RXAL                      global_timer
     0000FA10  _DMA_ADC_CFG                       global_timer
     0000FA11  _DMA_ADC_CR                        global_timer
     0000FA12  _DMA_ADC_STA                       global_timer
     0000FA17  _DMA_ADC_RXAH                      global_timer
     0000FA18  _DMA_ADC_RXAL                      global_timer
     0000FA19  _DMA_ADC_CFG2                      global_timer
     0000FA1A  _DMA_ADC_CHSW0                     global_timer
     0000FA1B  _DMA_ADC_CHSW1                     global_timer
     0000FA20  _DMA_SPI_CFG                       global_timer
     0000FA21  _DMA_SPI_CR                        global_timer
     0000FA22  _DMA_SPI_STA                       global_timer
     0000FA23  _DMA_SPI_AMT                       global_timer
     0000FA24  _DMA_SPI_DONE                      global_timer
     0000FA25  _DMA_SPI_TXAH                      global_timer
     0000FA26  _DMA_SPI_TXAL                      global_timer
     0000FA27  _DMA_SPI_RXAH                      global_timer
     0000FA28  _DMA_SPI_RXAL                      global_timer
     0000FA29  _DMA_SPI_CFG2                      global_timer
     0000FA30  _DMA_UR1T_CFG                      global_timer
     0000FA30  _DMA_UR2T_CFG                      global_timer
     0000FA30  _DMA_UR3T_CFG                      global_timer
     0000FA30  _DMA_UR4T_CFG                      global_timer
     0000FA31  _DMA_UR1T_CR                       global_timer
     0000FA31  _DMA_UR2T_CR                       global_timer
     0000FA31  _DMA_UR3T_CR                       global_timer
     0000FA31  _DMA_UR4T_CR                       global_timer
     0000FA32  _DMA_UR1T_STA                      global_timer
     0000FA32  _DMA_UR2T_STA                      global_timer
     0000FA32  _DMA_UR3T_STA                      global_timer
     0000FA32  _DMA_UR4T_STA                      global_timer
     0000FA33  _DMA_UR2T_AMT                      global_timer
     0000FA33  _DMA_UR3T_AMT                      global_timer
     0000FA33  _DMA_UR4T_AMT                      global_timer
     0000FA33  _DMA_URTX_AMT                      global_timer
     0000FA34  _DMA_UR1T_DONE                     global_timer
     0000FA34  _DMA_UR2T_DONE                     global_timer
     0000FA34  _DMA_UR3T_DONE                     global_timer
     0000FA34  _DMA_UR4T_DONE                     global_timer
     0000FA35  _DMA_UR1T_TXAH                     global_timer
     0000FA35  _DMA_UR2T_TXAH                     global_timer
     0000FA35  _DMA_UR3T_TXAH                     global_timer
     0000FA35  _DMA_UR4T_TXAH                     global_timer
     0000FA36  _DMA_UR1T_TXAL                     global_timer
     0000FA36  _DMA_UR2T_TXAL                     global_timer
ASxxxx Linker V03.00 + NoICE + sdld,  page 7.
Hexadecimal  [32-Bits]

Area                                    Addr        Size        Decimal Bytes (Attributes)
--------------------------------        ----        ----        ------- ----- ------------
.  .ABS.                            00000000    00000000 =           0. bytes (ABS,CON)

      Value  Global                              Global Defined In Module
      -----  --------------------------------   ------------------------
     0000FA36  _DMA_UR3T_TXAL                     global_timer
     0000FA36  _DMA_UR4T_TXAL                     global_timer
     0000FA38  _DMA_UR1R_CFG                      global_timer
     0000FA38  _DMA_UR2R_CFG                      global_timer
     0000FA38  _DMA_UR3R_CFG                      global_timer
     0000FA38  _DMA_UR4R_CFG                      global_timer
     0000FA39  _DMA_UR1R_CR                       global_timer
     0000FA39  _DMA_UR2R_CR                       global_timer
     0000FA39  _DMA_UR3R_CR                       global_timer
     0000FA39  _DMA_UR4R_CR                       global_timer
     0000FA3A  _DMA_UR1R_STA                      global_timer
     0000FA3A  _DMA_UR2R_STA                      global_timer
     0000FA3A  _DMA_UR3R_STA                      global_timer
     0000FA3A  _DMA_UR4R_STA                      global_timer
     0000FA3B  _DMA_UR1R_AMT                      global_timer
     0000FA3B  _DMA_UR2R_AMT                      global_timer
     0000FA3B  _DMA_UR3R_AMT                      global_timer
     0000FA3B  _DMA_UR4R_AMT                      global_timer
     0000FA3C  _DMA_UR1R_DONE                     global_timer
     0000FA3C  _DMA_UR2R_DONE                     global_timer
     0000FA3C  _DMA_UR3R_DONE                     global_timer
     0000FA3C  _DMA_UR4R_DONE                     global_timer
     0000FA3D  _DMA_UR1R_TXAH                     global_timer
     0000FA3D  _DMA_UR2R_TXAH                     global_timer
     0000FA3D  _DMA_UR3R_TXAH                     global_timer
     0000FA3D  _DMA_UR4R_TXAH                     global_timer
     0000FA3E  _DMA_UR1R_TXAL                     global_timer
     0000FA3E  _DMA_UR2R_TXAL                     global_timer
     0000FA3E  _DMA_UR3R_TXAL                     global_timer
     0000FA3E  _DMA_UR4R_TXAL                     global_timer
     0000FA70  _DMA_LCM_CFG                       global_timer
     0000FA71  _DMA_LCM_CR                        global_timer
     0000FA72  _DMA_LCM_STA                       global_timer
     0000FA73  _DMA_LCM_AMT                       global_timer
     0000FA74  _DMA_LCM_DONE                      global_timer
     0000FA75  _DMA_LCM_TXAH                      global_timer
     0000FA76  _DMA_LCM_TXAL                      global_timer
     0000FA77  _DMA_LCM_RXAH                      global_timer
     0000FA78  _DMA_LCM_RXAL                      global_timer
     0000FCF0  _MD3                               global_timer
     0000FCF1  _MD2                               global_timer
     0000FCF2  _MD1                               global_timer
     0000FCF3  _MD0                               global_timer
     0000FCF4  _MD5                               global_timer
     0000FCF5  _MD4                               global_timer
     0000FCF6  _ARCON                             global_timer
     0000FCF7  _OPCON                             global_timer
     0000FD01  _P1INTE                            global_timer
     0000FD02  _P2INTE                            global_timer
     0000FD03  _P3INTE                            global_timer
     0000FD05  _P5INTE                            global_timer
ASxxxx Linker V03.00 + NoICE + sdld,  page 8.
Hexadecimal  [32-Bits]

Area                                    Addr        Size        Decimal Bytes (Attributes)
--------------------------------        ----        ----        ------- ----- ------------
.  .ABS.                            00000000    00000000 =           0. bytes (ABS,CON)

      Value  Global                              Global Defined In Module
      -----  --------------------------------   ------------------------
     0000FD11  _P1INTF                            global_timer
     0000FD12  _P2INTF                            global_timer
     0000FD13  _P3INTF                            global_timer
     0000FD15  _P5INTF                            global_timer
     0000FD21  _P1IM0                             global_timer
     0000FD22  _P2IM0                             global_timer
     0000FD23  _P3IM0                             global_timer
     0000FD25  _P5IM0                             global_timer
     0000FD31  _P1IM1                             global_timer
     0000FD32  _P2IM1                             global_timer
     0000FD33  _P3IM1                             global_timer
     0000FD35  _P5IM1                             global_timer
     0000FD41  _P1WKUE                            global_timer
     0000FD42  _P2WKUE                            global_timer
     0000FD43  _P3WKUE                            global_timer
     0000FD45  _P5WKUE                            global_timer
     0000FD60  _PINIPL                            global_timer
     0000FD61  _PINIPH                            global_timer
     0000FDE0  _CHIP_GUID                         global_timer
     0000FDE7  ___OTHER_INFO                      global_timer
     0000FDEB  _IRTRIM_22_1184MHz                 global_timer
     0000FDEC  _IRTRIM_24MHz                      global_timer
     0000FDED  _IRTRIM_27MHz                      global_timer
     0000FDEE  _IRTRIM_30MHz                      global_timer
     0000FDEF  _IRTRIM_33_1776MHz                 global_timer
     0000FDF0  _IRTRIM_35MHz                      global_timer
     0000FDF1  _IRTRIM_36_864MHz                  global_timer
     0000FDF2  _IRTRIM_40MHz                      global_timer
     0000FDF3  _IRTRIM_44_2368MHz                 global_timer
     0000FDF4  _IRTRIM_48MHz                      global_timer
     0000FDF5  _VRTRIM_6MHz                       global_timer
     0000FDF6  _VRTRIM_10MHz                      global_timer
     0000FDF7  _VRTRIM_27MHz                      global_timer
     0000FDF8  _VRTRIM_44MHz                      global_timer
     0000FDF9  _PROGRAM_AREA_SIZE                 global_timer
     0000FDFB  _CHIP_TEST_YEAR_BCD                global_timer
     0000FDFC  _CHIP_TEST_MONTH_BCD               global_timer
     0000FDFD  _CHIP_TEST_DAY_BCD                 global_timer
     0000FDFE  _CHIP_PACKAGE_TYPE                 global_timer
     0000FE00  _CKSEL                             global_timer
     0000FE01  _CLKDIV                            global_timer
     0000FE02  _HIRCCR                            global_timer
     0000FE03  _XOSCCR                            global_timer
     0000FE04  _IRC32KCR                          global_timer
     0000FE05  _MCLKOCR                           global_timer
     0000FE06  _IRCDB                             global_timer
     0000FE07  _IRC48MCR                          global_timer
     0000FE08  _SPFUNC                            global_timer
     0000FE08  _X32KCR                            global_timer
     0000FE09  _RSTFLAG                           global_timer
     0000FE11  _P1PU                              global_timer
ASxxxx Linker V03.00 + NoICE + sdld,  page 9.
Hexadecimal  [32-Bits]

Area                                    Addr        Size        Decimal Bytes (Attributes)
--------------------------------        ----        ----        ------- ----- ------------
.  .ABS.                            00000000    00000000 =           0. bytes (ABS,CON)

      Value  Global                              Global Defined In Module
      -----  --------------------------------   ------------------------
     0000FE12  _P2PU                              global_timer
     0000FE13  _P3PU                              global_timer
     0000FE15  _P5PU                              global_timer
     0000FE19  _P1NCS                             global_timer
     0000FE1A  _P2NCS                             global_timer
     0000FE1B  _P3NCS                             global_timer
     0000FE1D  _P5NCS                             global_timer
     0000FE21  _P1SR                              global_timer
     0000FE22  _P2SR                              global_timer
     0000FE23  _P3SR                              global_timer
     0000FE25  _P5SR                              global_timer
     0000FE29  _P1DR                              global_timer
     0000FE2A  _P2DR                              global_timer
     0000FE2B  _P3DR                              global_timer
     0000FE2D  _P5DR                              global_timer
     0000FE31  _P1IE                              global_timer
     0000FE32  _P2IE                              global_timer
     0000FE33  _P3IE                              global_timer
     0000FE35  _P5IE                              global_timer
     0000FE50  _LCMCFG                            global_timer
     0000FE51  _LCMCFG2                           global_timer
     0000FE52  _LCMCR                             global_timer
     0000FE53  _LCMSTA                            global_timer
     0000FE54  _LCMIDDAT                          global_timer
     0000FE54  _LCMIDDATL                         global_timer
     0000FE55  _LCMIDDATH                         global_timer
     0000FE60  _RTCCR                             global_timer
     0000FE61  _RTCCFG                            global_timer
     0000FE62  _RTCIEN                            global_timer
     0000FE63  _RTCIF                             global_timer
     0000FE64  _ALAHOUR                           global_timer
     0000FE65  _ALAMIN                            global_timer
     0000FE66  _ALASEC                            global_timer
     0000FE67  _ALASSEC                           global_timer
     0000FE68  _INIYEAR                           global_timer
     0000FE69  _INIMONTH                          global_timer
     0000FE6A  _INIDAY                            global_timer
     0000FE6B  _INIHOUR                           global_timer
     0000FE6C  _INIMIN                            global_timer
     0000FE6D  _INISEC                            global_timer
     0000FE6E  _INISSEC                           global_timer
     0000FE70  _YEAR                              global_timer
     0000FE71  _MONTH                             global_timer
     0000FE72  _DAY                               global_timer
     0000FE73  _HOUR                              global_timer
     0000FE74  _MIN                               global_timer
     0000FE75  _SEC                               global_timer
     0000FE76  _SSEC                              global_timer
     0000FE80  _I2CCFG                            global_timer
     0000FE81  _I2CMSCR                           global_timer
     0000FE82  _I2CMSST                           global_timer
ASxxxx Linker V03.00 + NoICE + sdld,  page 10.
Hexadecimal  [32-Bits]

Area                                    Addr        Size        Decimal Bytes (Attributes)
--------------------------------        ----        ----        ------- ----- ------------
.  .ABS.                            00000000    00000000 =           0. bytes (ABS,CON)

      Value  Global                              Global Defined In Module
      -----  --------------------------------   ------------------------
     0000FE83  _I2CSLCR                           global_timer
     0000FE84  _I2CSLST                           global_timer
     0000FE85  _I2CSLADR                          global_timer
     0000FE86  _I2CTXD                            global_timer
     0000FE87  _I2CRXD                            global_timer
     0000FE88  _I2CMSAUX                          global_timer
     0000FEA2  _TM2PS                             global_timer
     0000FEA3  _TM3PS                             global_timer
     0000FEA4  _TM4PS                             global_timer
     0000FEA8  _ADCTIM                            global_timer
     0000FEAD  _ADCEXCFG                          global_timer
     0000FEAE  _CMPEXCFG                          global_timer
     0000FEB0  _PWMA_ETRPS                        global_timer
     0000FEB1  _PWMA_ENO                          global_timer
     0000FEB2  _PWMA_PS                           global_timer
     0000FEB3  _PWMA_IOAUX                        global_timer
     0000FEB4  _PWMB_ETRPS                        global_timer
     0000FEB5  _PWMB_ENO                          global_timer
     0000FEB6  _PWMB_PS                           global_timer
     0000FEB7  _PWMB_IOAUX                        global_timer
     0000FEC0  _PWMA_CR1                          global_timer
     0000FEC1  _PWMA_CR2                          global_timer
     0000FEC2  _PWMA_SMCR                         global_timer
     0000FEC3  _PWMA_ETR                          global_timer
     0000FEC4  _PWMA_IER                          global_timer
     0000FEC5  _PWMA_SR1                          global_timer
     0000FEC6  _PWMA_SR2                          global_timer
     0000FEC7  _PWMA_EGR                          global_timer
     0000FEC8  _PWMA_CCMR1                        global_timer
     0000FEC9  _PWMA_CCMR2                        global_timer
     0000FECA  _PWMA_CCMR3                        global_timer
     0000FECB  _PWMA_CCMR4                        global_timer
     0000FECC  _PWMA_CCER1                        global_timer
     0000FECD  _PWMA_CCER2                        global_timer
     0000FECE  _PWMA_CNTRH                        global_timer
     0000FECF  _PWMA_CNTRL                        global_timer
     0000FED0  _PWMA_PSCRH                        global_timer
     0000FED1  _PWMA_PSCRL                        global_timer
     0000FED2  _PWMA_ARRH                         global_timer
     0000FED3  _PWMA_ARRL                         global_timer
     0000FED4  _PWMA_RCR                          global_timer
     0000FED5  _PWMA_CCR1H                        global_timer
     0000FED6  _PWMA_CCR1L                        global_timer
     0000FED7  _PWMA_CCR2H                        global_timer
     0000FED8  _PWMA_CCR2L                        global_timer
     0000FED9  _PWMA_CCR3H                        global_timer
     0000FEDA  _PWMA_CCR3L                        global_timer
     0000FEDB  _PWMA_CCR4H                        global_timer
     0000FEDC  _PWMA_CCR4L                        global_timer
     0000FEDD  _PWMA_BKR                          global_timer
     0000FEDE  _PWMA_DTR                          global_timer
ASxxxx Linker V03.00 + NoICE + sdld,  page 11.
Hexadecimal  [32-Bits]

Area                                    Addr        Size        Decimal Bytes (Attributes)
--------------------------------        ----        ----        ------- ----- ------------
.  .ABS.                            00000000    00000000 =           0. bytes (ABS,CON)

      Value  Global                              Global Defined In Module
      -----  --------------------------------   ------------------------
     0000FEDF  _PWMA_OISR                         global_timer
     0000FEE0  _PWMB_CR1                          global_timer
     0000FEE1  _PWMB_CR2                          global_timer
     0000FEE2  _PWMB_SMCR                         global_timer
     0000FEE3  _PWMB_ETR                          global_timer
     0000FEE4  _PWMB_IER                          global_timer
     0000FEE5  _PWMB_SR1                          global_timer
     0000FEE6  _PWMB_SR2                          global_timer
     0000FEE7  _PWMB_EGR                          global_timer
     0000FEE8  _PWMB_CCMR1                        global_timer
     0000FEE9  _PWMB_CCMR2                        global_timer
     0000FEEA  _PWMB_CCMR3                        global_timer
     0000FEEB  _PWMB_CCMR4                        global_timer
     0000FEEC  _PWMB_CCER1                        global_timer
     0000FEED  _PWMB_CCER2                        global_timer
     0000FEEE  _PWMB_CNTRH                        global_timer
     0000FEEF  _PWMB_CNTRL                        global_timer
     0000FEF0  _PWMB_PSCRH                        global_timer
     0000FEF1  _PWMB_PSCRL                        global_timer
     0000FEF2  _PWMB_ARRH                         global_timer
     0000FEF3  _PWMB_ARRL                         global_timer
     0000FEF4  _PWMB_RCR                          global_timer
     0000FEF5  _PWMB_CCR1H                        global_timer
     0000FEF6  _PWMB_CCR1L                        global_timer
     0000FEF7  _PWMB_CCR2H                        global_timer
     0000FEF8  _PWMB_CCR2L                        global_timer
     0000FEF9  _PWMB_CCR3H                        global_timer
     0000FEFA  _PWMB_CCR3L                        global_timer
     0000FEFB  _PWMB_CCR4H                        global_timer
     0000FEFC  _PWMB_CCR4L                        global_timer
     0000FEFD  _PWMB_BKR                          global_timer
     0000FEFE  _PWMB_DTR                          global_timer
     0000FEFF  _PWMB_OISR                         global_timer

ASxxxx Linker V03.00 + NoICE + sdld,  page 12.
Hexadecimal  [32-Bits]

Area                                    Addr        Size        Decimal Bytes (Attributes)
--------------------------------        ----        ----        ------- ----- ------------
REG_BANK_0                          00000000    00000008 =           8. bytes (REL,OVR)

      Value  Global                              Global Defined In Module
      -----  --------------------------------   ------------------------
ASxxxx Linker V03.00 + NoICE + sdld,  page 13.
Hexadecimal  [32-Bits]

Area                                    Addr        Size        Decimal Bytes (Attributes)
--------------------------------        ----        ----        ------- ----- ------------
BIT_BANK                            00000020    00000001 =           1. bytes (REL,OVR)

      Value  Global                              Global Defined In Module
      -----  --------------------------------   ------------------------
ASxxxx Linker V03.00 + NoICE + sdld,  page 14.
Hexadecimal  [32-Bits]

Area                                    Addr        Size        Decimal Bytes (Attributes)
--------------------------------        ----        ----        ------- ----- ------------
DSEG                                00000000    0000007E =         126. bytes (REL,CON)

      Value  Global                              Global Defined In Module
      -----  --------------------------------   ------------------------
     00000019  _bp                                _bp

ASxxxx Linker V03.00 + NoICE + sdld,  page 15.
Hexadecimal  [32-Bits]

Area                                    Addr        Size        Decimal Bytes (Attributes)
--------------------------------        ----        ----        ------- ----- ------------
OSEG                                0000001A    00000004 =           4. bytes (REL,OVR)

      Value  Global                              Global Defined In Module
      -----  --------------------------------   ------------------------
ASxxxx Linker V03.00 + NoICE + sdld,  page 16.
Hexadecimal  [32-Bits]

Area                                    Addr        Size        Decimal Bytes (Attributes)
--------------------------------        ----        ----        ------- ----- ------------
ISEG                                00000033    0000000A =          10. bytes (REL,CON)

      Value  Global                              Global Defined In Module
      -----  --------------------------------   ------------------------
ASxxxx Linker V03.00 + NoICE + sdld,  page 17.
Hexadecimal  [32-Bits]

Area                                    Addr        Size        Decimal Bytes (Attributes)
--------------------------------        ----        ----        ------- ----- ------------
SSEG                                0000003D    00000070 =         112. bytes (REL,OVR)

      Value  Global                              Global Defined In Module
      -----  --------------------------------   ------------------------
     0000003D  __start__stack                     main

ASxxxx Linker V03.00 + NoICE + sdld,  page 18.
Hexadecimal  [32-Bits]

Area                                    Addr        Size        Decimal Bytes (Attributes)
--------------------------------        ----        ----        ------- ----- ------------
XSEG                                00000000    0000031E =         798. bytes (REL,CON,XDATA)

      Value  Global                              Global Defined In Module
      -----  --------------------------------   ------------------------
D:   00000021  _gpioWrite_PARM_2                  gpio_hal
D:   00000034  _i2cInitialiseMaster_PARM_2        i2c_hal
D:   0000003C  _i2cStartCommand_PARM_2            i2c_hal
D:   0000004C  _serialConsoleInitialise_PARM_2    serial_console
D:   00000050  _serialConsoleInitialise_PARM_3    serial_console
D:   00000071  _spiConfigure_PARM_2               spi_hal
D:   00000072  _spiConfigure_PARM_3               spi_hal
D:   00000073  _spiConfigure_PARM_4               spi_hal
D:   00000074  _spiConfigure_PARM_5               spi_hal
D:   00000076  _spiSend_PARM_2                    spi_hal
D:   00000078  _spiSend_PARM_3                    spi_hal
D:   0000007E  _spiReceive_PARM_2                 spi_hal
D:   00000080  _spiReceive_PARM_3                 spi_hal
D:   00000087  _startTimer_PARM_2                 timer_hal
D:   0000008B  _startTimer_PARM_3                 timer_hal
D:   0000008C  _startTimer_PARM_4                 timer_hal
D:   0000008D  _startTimer_PARM_5                 timer_hal
D:   000001B9  _uartTransmitBufferHasBytesFree_   uart_hal
D:   000001BE  _uartInitialise_PARM_2             uart_hal
D:   000001C2  _uartInitialise_PARM_3             uart_hal
D:   000001C3  _uartInitialise_PARM_4             uart_hal
D:   000001C4  _uartInitialise_PARM_5             uart_hal
D:   000001CB  _uartGetBlock_PARM_2               uart_hal
D:   000001CE  _uartGetBlock_PARM_3               uart_hal
D:   000001CF  _uartGetBlock_PARM_4               uart_hal
D:   000001D1  _uartSendBlock_PARM_2              uart_hal
D:   000001D4  _uartSendBlock_PARM_3              uart_hal
D:   000001D5  _uartSendBlock_PARM_4              uart_hal
D:   00000247  _nrf24_transmit_PARM_2             nrf24l01
D:   00000248  _nrf24_transmit_PARM_3             nrf24l01
D:   0000024C  _nrf24_send_payload_PARM_2         nrf24l01
D:   00000251  _nrf24_device_PARM_2               nrf24l01
D:   00000259  _nrf24_automatic_retransmit_setu   nrf24l01
D:   0000025D  _nrf24_dynamic_payload_PARM_2      nrf24l01
D:   00000260  _nrf24_prx_static_payload_width_   nrf24l01
D:   0000026A  _nrf24_interrupt_mask_PARM_2       nrf24l01
D:   0000026B  _nrf24_interrupt_mask_PARM_3       nrf24l01
D:   0000026D  _nrf24_crc_configuration_PARM_2    nrf24l01
D:   00000270  _nrf24_read_PARM_2                 nrf24l01
D:   00000273  _nrf24_read_PARM_3                 nrf24l01
D:   00000274  _nrf24_read_PARM_4                 nrf24l01
D:   00000276  _nrf24_write_PARM_2                nrf24l01
D:   00000279  _nrf24_write_PARM_3                nrf24l01
D:   0000027A  _nrf24_write_PARM_4                nrf24l01
D:   00000283  _read_int_PARM_2                   terminal
D:   00000286  _read_int_PARM_3                   terminal
D:   000002B5  _c                                 protocol
D:   000002BD  __divuint_PARM_2                   _divuint
D:   000002C4  __modulong_PARM_2                  _modulong
D:   000002CD  __divulong_PARM_2                  _divulong
ASxxxx Linker V03.00 + NoICE + sdld,  page 19.
Hexadecimal  [32-Bits]

Area                                    Addr        Size        Decimal Bytes (Attributes)
--------------------------------        ----        ----        ------- ----- ------------
XSEG                                00000000    0000031E =         798. bytes (REL,CON,XDATA)

      Value  Global                              Global Defined In Module
      -----  --------------------------------   ------------------------
D:   000002DA  _memset_PARM_2                     _memset
D:   000002DB  _memset_PARM_3                     _memset
D:   000002DD  __gptrput_PARM_2                   _gptrput
D:   000002DE  _vsprintf_PARM_2                   sprintf
D:   000002E1  _vsprintf_PARM_3                   sprintf
D:   000002E5  _vprintf_PARM_2                    vprintf
D:   000002FA  __print_format_PARM_2              printf_large
D:   000002FD  __print_format_PARM_3              printf_large
D:   00000300  __print_format_PARM_4              printf_large
D:   0000031C  __mulint_PARM_2                    _mulint
ASxxxx Linker V03.00 + NoICE + sdld,  page 20.
Hexadecimal  [32-Bits]

Area                                    Addr        Size        Decimal Bytes (Attributes)
--------------------------------        ----        ----        ------- ----- ------------
XISEG                               0000031E    00000074 =         116. bytes (REL,CON,XDATA)

      Value  Global                              Global Defined In Module
      -----  --------------------------------   ------------------------
D:   0000031E  __UART1_receiveBuffer              uart_hal
D:   00000326  __UART1_transmitBuffer             uart_hal
D:   0000032E  __UART2_receiveBuffer              uart_hal
D:   00000336  __UART2_transmitBuffer             uart_hal
D:   0000034B  _dataReady                         nrf24l01
D:   0000036B  _datapipe_address                  nrf24l01
D:   00000389  _char_count                        protocol
D:   0000038A  _uart_receive_func_ptr             protocol
D:   0000038C  _nrf24_receive_func_ptr            protocol
ASxxxx Linker V03.00 + NoICE + sdld,  page 21.
Hexadecimal  [32-Bits]

Area                                    Addr        Size        Decimal Bytes (Attributes)
--------------------------------        ----        ----        ------- ----- ------------
HOME                                00000000    00000051 =          81. bytes (REL,CON,CODE)

      Value  Global                              Global Defined In Module
      -----  --------------------------------   ------------------------
C:   0000004E  __sdcc_program_startup             main

ASxxxx Linker V03.00 + NoICE + sdld,  page 22.
Hexadecimal  [32-Bits]

Area                                    Addr        Size        Decimal Bytes (Attributes)
--------------------------------        ----        ----        ------- ----- ------------
GSINIT0                             00000051    00000003 =           3. bytes (REL,CON,CODE)

      Value  Global                              Global Defined In Module
      -----  --------------------------------   ------------------------
C:   00000051  __sdcc_gsinit_startup              

ASxxxx Linker V03.00 + NoICE + sdld,  page 23.
Hexadecimal  [32-Bits]

Area                                    Addr        Size        Decimal Bytes (Attributes)
--------------------------------        ----        ----        ------- ----- ------------
GSINIT2                             00000054    0000000A =          10. bytes (REL,CON,CODE)

      Value  Global                              Global Defined In Module
      -----  --------------------------------   ------------------------
ASxxxx Linker V03.00 + NoICE + sdld,  page 24.
Hexadecimal  [32-Bits]

Area                                    Addr        Size        Decimal Bytes (Attributes)
--------------------------------        ----        ----        ------- ----- ------------
GSINIT3                             0000005E    00000021 =          33. bytes (REL,CON,CODE)

      Value  Global                              Global Defined In Module
      -----  --------------------------------   ------------------------
C:   0000005E  __mcs51_genXINIT                   

ASxxxx Linker V03.00 + NoICE + sdld,  page 25.
Hexadecimal  [32-Bits]

Area                                    Addr        Size        Decimal Bytes (Attributes)
--------------------------------        ----        ----        ------- ----- ------------
GSINIT4                             0000007F    0000002A =          42. bytes (REL,CON,CODE)

      Value  Global                              Global Defined In Module
      -----  --------------------------------   ------------------------
C:   0000007F  __mcs51_genRAMCLEAR                
C:   00000085  __mcs51_genXRAMCLEAR               

ASxxxx Linker V03.00 + NoICE + sdld,  page 26.
Hexadecimal  [32-Bits]

Area                                    Addr        Size        Decimal Bytes (Attributes)
--------------------------------        ----        ----        ------- ----- ------------
GSFINAL                             000000A9    00000003 =           3. bytes (REL,CON,CODE)

      Value  Global                              Global Defined In Module
      -----  --------------------------------   ------------------------
ASxxxx Linker V03.00 + NoICE + sdld,  page 27.
Hexadecimal  [32-Bits]

Area                                    Addr        Size        Decimal Bytes (Attributes)
--------------------------------        ----        ----        ------- ----- ------------
CSEG                                000000AC    000049BD =       18877. bytes (REL,CON,CODE)

      Value  Global                              Global Defined In Module
      -----  --------------------------------   ------------------------
C:   0000017E  _gpioConfigure                     gpio_hal
C:   000008DF  _gpioRead                          gpio_hal
C:   00000948  _gpioWrite                         gpio_hal
C:   00000B10  _i2cInitialiseMaster               i2c_hal
C:   00000B88  _i2cStart                          i2c_hal
C:   00000B91  _i2cStop                           i2c_hal
C:   00000B9A  _i2cSendAck                        i2c_hal
C:   00000BBE  _i2cSendData                       i2c_hal
C:   00000BD2  _i2cReceiveAck                     i2c_hal
C:   00000BED  _i2cReceiveData                    i2c_hal
C:   00000BFD  _i2cStartCommand                   i2c_hal
C:   00000C2B  _i2cSendByte                       i2c_hal
C:   00000C51  _i2cReadByteSendAck                i2c_hal
C:   00000C73  _fifoClear                         fifo_buffer
C:   00000CD8  _fifoIsFull                        fifo_buffer
C:   00000D1C  _fifoBytesFree                     fifo_buffer
C:   00000D56  _fifoWrite                         fifo_buffer
C:   00000EB8  _fifoRead                          fifo_buffer
C:   0000101E  _serialConsoleInitialise           serial_console
C:   00001060  _putchar                           serial_console
C:   000010DB  _getchar                           serial_console
C:   0000121A  _spiSelectSpeed                    spi_hal
C:   00001347  _spiConfigure                      spi_hal
C:   00001377  _spiSend                           spi_hal
C:   000013F4  _spiReceive                        spi_hal
C:   0000146E  _spi_isr                           spi_hal
C:   00001523  _startTimer                        timer_hal
C:   0000188C  _stopTimer                         timer_hal
C:   000019AE  _uartIsTransmissionComplete        uart_hal
C:   000019D8  _uartTransmitBufferHasBytesFree    uart_hal
C:   00001A0A  _uartReceiveBufferBytes            uart_hal
C:   00001A35  _uartFlushReceiveBuffer            uart_hal
C:   00001A4C  _uartInitialise                    uart_hal
C:   00001C4F  _uart1_isr                         uart_hal
C:   00001CF3  _uart2_isr                         uart_hal
C:   00001D97  _uartGetBlock                      uart_hal
C:   00001E02  _uartSendBlock                     uart_hal
C:   00001ECC  _delay1ms                          delay
C:   00001EFD  _delay10us                         delay
C:   00001F14  _delay1us                          delay
C:   00001F3C  _uint8_strlen                      report
C:   00001F7A  _report_init                       report
C:   00001F9C  _report_toggle_led                 report
C:   00002006  _report                            report
C:   000020D8  _main                              main
C:   00002112  _delay_function                    nrf24l01
C:   0000213A  _SPI_Initializer                   nrf24l01
C:   00002161  _pinout_Initializer                nrf24l01
C:   00002190  _nrf24_SPI                         nrf24l01
C:   000021A4  _SPI_send_command                  nrf24l01
ASxxxx Linker V03.00 + NoICE + sdld,  page 28.
Hexadecimal  [32-Bits]

Area                                    Addr        Size        Decimal Bytes (Attributes)
--------------------------------        ----        ----        ------- ----- ------------
CSEG                                000000AC    000049BD =       18877. bytes (REL,CON,CODE)

      Value  Global                              Global Defined In Module
      -----  --------------------------------   ------------------------
C:   000021D6  _nrf24_CE                          nrf24l01
C:   000021EA  _nrf24_dynamic_ack                 nrf24l01
C:   0000227D  _nrf24_transmit                    nrf24l01
C:   000022E5  _nrf24_send_payload                nrf24l01
C:   00002367  _nrf24_transmit_status             nrf24l01
C:   000023D6  _nrf24_receive                     nrf24l01
C:   00002509  _nrf24_flush                       nrf24l01
C:   0000256A  _nrf24_reset                       nrf24l01
C:   0000271D  _nrf24_device                      nrf24l01
C:   00002839  _nrf24_print_internal_register_v   nrf24l01
C:   000029F3  _nrf24_automatic_retransmit_setu   nrf24l01
C:   00002A6C  _nrf24_auto_acknowledgment_setup   nrf24l01
C:   00002AA8  _nrf24_dynamic_payload             nrf24l01
C:   00002B74  _nrf24_datapipe_ptx                nrf24l01
C:   00002BC2  _nrf24_datapipe_address_configur   nrf24l01
C:   00002C06  _nrf24_prx_static_payload_width    nrf24l01
C:   00002C47  _nrf24_datapipe_enable             nrf24l01
C:   00002C7E  _nrf24_address_width               nrf24l01
C:   00002CC4  _nrf24_rf_datarate                 nrf24l01
C:   00002D59  _nrf24_rf_power                    nrf24l01
C:   00002DEF  _nrf24_rf_channel                  nrf24l01
C:   00002E45  _nrf24_interrupt_mask              nrf24l01
C:   00002ECF  _nrf24_crc_configuration           nrf24l01
C:   00002F43  _nrf24_mode                        nrf24l01
C:   0000305A  _nrf24_read                        nrf24l01
C:   000030C6  _nrf24_write                       nrf24l01
C:   0000312F  _read_int                          terminal
C:   00003409  _terminal_execute_line             terminal
C:   0000386D  _protocol_main_loop                protocol
C:   000038DC  _global_timer_init                 global_timer
C:   000038FF  _get_current_time                  global_timer
C:   00003913  _timer0_isr                        global_timer
C:   00003958  __divuint                          _divuint
C:   000039E5  __modulong                         _modulong
C:   00003B25  ___fsmul                           _fsmul
C:   00003BC8  fsgetargs                          _fsget2args
C:   00003BF6  __divulong                         _divulong
C:   00003CEA  fs_normalize_a                     _fsnormalize
C:   00003D1D  _memset                            _memset
C:   00003D45  ___slong2fs                        _slong2fs
C:   00003D4E  slong2fs_doit                      _slong2fs
C:   00003D72  ___fs2slong                        _fs2slong
C:   00003DCD  fsgetarg                           _fsget1arg
C:   00003DDF  __gptrput                          _gptrput
C:   00003E6A  _vsprintf                          sprintf
C:   00003ECB  _sprintf                           sprintf
C:   00003F27  fs_round_and_return                _fsreturnval
C:   00003F3F  fs_zerocheck_return                _fsreturnval
C:   00003F48  fs_return_zero                     _fsreturnval
C:   00003F50  fs_direct_return                   _fsreturnval
C:   00003F5E  fs_return_inf                      _fsreturnval
ASxxxx Linker V03.00 + NoICE + sdld,  page 29.
Hexadecimal  [32-Bits]

Area                                    Addr        Size        Decimal Bytes (Attributes)
--------------------------------        ----        ----        ------- ----- ------------
CSEG                                000000AC    000049BD =       18877. bytes (REL,CON,CODE)

      Value  Global                              Global Defined In Module
      -----  --------------------------------   ------------------------
C:   00003F6B  fs_return_nan                      _fsreturnval
C:   00003F85  _vprintf                           vprintf
C:   00003FC4  _printf                            vprintf
C:   000040CD  __print_format                     printf_large
C:   000049CE  _strlen                            _strlen
C:   000049E6  __mulint                           _mulint
C:   00004A06  __gptrget                          _gptrget
C:   00004A22  fs_rshift_a                        _fsrshift
C:   00004A65  __sdcc_external_startup            _startup

ASxxxx Linker V03.00 + NoICE + sdld,  page 30.
Hexadecimal  [32-Bits]

Area                                    Addr        Size        Decimal Bytes (Attributes)
--------------------------------        ----        ----        ------- ----- ------------
CONST                               00004A69    00000280 =         640. bytes (REL,CON,CODE)

      Value  Global                              Global Defined In Module
      -----  --------------------------------   ------------------------
ASxxxx Linker V03.00 + NoICE + sdld,  page 31.
Hexadecimal  [32-Bits]

Area                                    Addr        Size        Decimal Bytes (Attributes)
--------------------------------        ----        ----        ------- ----- ------------
XINIT                               00004CE9    00000074 =         116. bytes (REL,CON,CODE)

      Value  Global                              Global Defined In Module
      -----  --------------------------------   ------------------------
ASxxxx Linker V03.00 + NoICE + sdld,  page 32.

Files Linked                              [ module(s) ]

build/gpio-hal.rel                        [  ]
build/i2c-hal.rel                         [  ]
build/fifo-buffer.rel                     [  ]
build/serial-console.rel                  [  ]
build/spi-hal.rel                         [  ]
build/timer-hal.rel                       [  ]
build/uart-hal.rel                        [  ]
build/delay.rel                           [  ]
build/report.rel                          [  ]
build/main.rel                            [  ]
build/nrf24l01.rel                        [  ]
build/terminal.rel                        [  ]
build/protocol.rel                        [  ]
build/global_timer.rel                    [  ]
build/crtxinit.rel                        [  ]


Libraries Linked                          [ object file ]

/usr/bin/../share/sdcc/lib/large/libint.lib
                                          [ _divuint.rel ]
/usr/bin/../share/sdcc/lib/large/liblong.lib
                                          [ _modulong.rel ]
/usr/bin/../share/sdcc/lib/large/libfloat.lib
                                          [ _fsmul.rel ]
/usr/bin/../share/sdcc/lib/large/libfloat.lib
                                          [ _fsget2args.rel ]
/usr/bin/../share/sdcc/lib/large/liblong.lib
                                          [ _divulong.rel ]
/usr/bin/../share/sdcc/lib/large/mcs51.lib
                                          [ crtclear.rel ]
/usr/bin/../share/sdcc/lib/large/libfloat.lib
                                          [ _fsnormalize.rel ]
/usr/bin/../share/sdcc/lib/large/libsdcc.lib
                                          [ _memset.rel ]
/usr/bin/../share/sdcc/lib/large/libfloat.lib
                                          [ _slong2fs.rel ]
/usr/bin/../share/sdcc/lib/large/libfloat.lib
                                          [ _fs2slong.rel ]
/usr/bin/../share/sdcc/lib/large/libfloat.lib
                                          [ _fsget1arg.rel ]
/usr/bin/../share/sdcc/lib/large/libsdcc.lib
                                          [ _gptrput.rel ]
/usr/bin/../share/sdcc/lib/large/libsdcc.lib
                                          [ sprintf.rel ]
/usr/bin/../share/sdcc/lib/large/mcs51.lib
                                          [ crtxclear.rel ]
/usr/bin/../share/sdcc/lib/large/libfloat.lib
                                          [ _fsreturnval.rel ]
/usr/bin/../share/sdcc/lib/large/libsdcc.lib
                                          [ _bp.rel ]
/usr/bin/../share/sdcc/lib/large/libsdcc.lib
                                          [ vprintf.rel ]
/usr/bin/../share/sdcc/lib/large/mcs51.lib
                                          [ crtpagesfr.rel ]
/usr/bin/../share/sdcc/lib/large/libsdcc.lib
                                          [ printf_large.rel ]
/usr/bin/../share/sdcc/lib/large/libsdcc.lib
                                          [ _strlen.rel ]
/usr/bin/../share/sdcc/lib/large/libint.lib
                                          [ _mulint.rel ]
/usr/bin/../share/sdcc/lib/large/mcs51.lib
                                          [ crtstart.rel ]
/usr/bin/../share/sdcc/lib/large/libsdcc.lib
                                          [ _gptrget.rel ]
/usr/bin/../share/sdcc/lib/large/libfloat.lib
                                          [ _fsrshift.rel ]
/usr/bin/../share/sdcc/lib/large/libsdcc.lib
                                          [ _startup.rel ]

ASxxxx Linker V03.00 + NoICE + sdld,  page 33.

User Base Address Definitions

HOME = 0x0000
ISEG = 0x0000
BSEG = 0x0000

